target datalayout = "e-m:e-p270:32:32-p271:32:32-p272:64:64-i64:64-i128:128-f80:128-n8:16:32:64-S128"
target triple = "x86_64-pc-linux-gnu"

%struct._digitech_conv_data_t = type { i32 }

@hf_digitech_parameter_id = internal global i32 0, align 4
@hf_digitech_parameter_id_global = internal global i32 0, align 4
@hf_digitech_parameter_id_pickup = internal global i32 0, align 4
@hf_digitech_parameter_id_wah = internal global i32 0, align 4
@hf_digitech_parameter_id_compressor = internal global i32 0, align 4
@hf_digitech_parameter_id_gnx3k_whammy = internal global i32 0, align 4
@hf_digitech_parameter_id_distortion = internal global i32 0, align 4
@hf_digitech_parameter_id_amp_channel = internal global i32 0, align 4
@hf_digitech_parameter_id_amp = internal global i32 0, align 4
@hf_digitech_parameter_id_amp_cabinet = internal global i32 0, align 4
@hf_digitech_parameter_id_amp_b = internal global i32 0, align 4
@hf_digitech_parameter_id_amp_cabinet_b = internal global i32 0, align 4
@hf_digitech_parameter_id_noisegate = internal global i32 0, align 4
@hf_digitech_parameter_id_volume_pre_fx = internal global i32 0, align 4
@hf_digitech_parameter_id_chorusfx = internal global i32 0, align 4
@hf_digitech_parameter_id_delay = internal global i32 0, align 4
@hf_digitech_parameter_id_reverb = internal global i32 0, align 4
@hf_digitech_parameter_id_volume_post_fx = internal global i32 0, align 4
@hf_digitech_parameter_id_preset = internal global i32 0, align 4
@hf_digitech_parameter_id_wah_min_max = internal global i32 0, align 4
@hf_digitech_parameter_id_equalizer = internal global i32 0, align 4
@hf_digitech_parameter_id_equalizer_b = internal global i32 0, align 4
@hf_digitech_parameter_id_amp_loop = internal global i32 0, align 4
@hf_digitech_parameter_position = internal global i32 0, align 4
@hf_digitech_parameter_data = internal global i32 0, align 4
@hf_digitech_parameter_data_count = internal global i32 0, align 4
@hf_digitech_parameter_data_two_byte_count = internal global i32 0, align 4
@hf_digitech_parameter_multibyte_data = internal global i32 0, align 4

; Function Attrs: nounwind null_pointer_is_valid sspstrong uwtable
define internal i32 @get_digitech_hf_parameter_id_by_position(i8 noundef zeroext %0) #3 {
  %2 = alloca i8, align 1
  %3 = alloca i32, align 4
  store i8 %0, ptr %2, align 1
  call void @llvm.lifetime.start.p0(i64 4, ptr %3) #5
  %4 = load i32, ptr @hf_digitech_parameter_id, align 4
  store i32 %4, ptr %3, align 4
  %5 = load i8, ptr %2, align 1
  %6 = zext i8 %5 to i32
  switch i32 %6, label %52 [
    i32 0, label %7
    i32 2, label %9
    i32 3, label %11
    i32 4, label %13
    i32 5, label %15
    i32 6, label %17
    i32 7, label %19
    i32 8, label %21
    i32 9, label %23
    i32 10, label %25
    i32 11, label %27
    i32 12, label %29
    i32 13, label %31
    i32 14, label %33
    i32 15, label %35
    i32 16, label %37
    i32 17, label %39
    i32 18, label %41
    i32 20, label %43
    i32 24, label %45
    i32 25, label %47
    i32 33, label %49
    i32 19, label %51
    i32 21, label %51
    i32 22, label %51
    i32 23, label %51
    i32 26, label %51
    i32 132, label %51
  ]

7:                                                ; preds = %1
  %8 = load i32, ptr @hf_digitech_parameter_id_global, align 4
  store i32 %8, ptr %3, align 4
  br label %53

9:                                                ; preds = %1
  %10 = load i32, ptr @hf_digitech_parameter_id_pickup, align 4
  store i32 %10, ptr %3, align 4
  br label %53

11:                                               ; preds = %1
  %12 = load i32, ptr @hf_digitech_parameter_id_wah, align 4
  store i32 %12, ptr %3, align 4
  br label %53

13:                                               ; preds = %1
  %14 = load i32, ptr @hf_digitech_parameter_id_compressor, align 4
  store i32 %14, ptr %3, align 4
  br label %53

15:                                               ; preds = %1
  %16 = load i32, ptr @hf_digitech_parameter_id_gnx3k_whammy, align 4
  store i32 %16, ptr %3, align 4
  br label %53

17:                                               ; preds = %1
  %18 = load i32, ptr @hf_digitech_parameter_id_distortion, align 4
  store i32 %18, ptr %3, align 4
  br label %53

19:                                               ; preds = %1
  %20 = load i32, ptr @hf_digitech_parameter_id_amp_channel, align 4
  store i32 %20, ptr %3, align 4
  br label %53

21:                                               ; preds = %1
  %22 = load i32, ptr @hf_digitech_parameter_id_amp, align 4
  store i32 %22, ptr %3, align 4
  br label %53

23:                                               ; preds = %1
  %24 = load i32, ptr @hf_digitech_parameter_id_amp_cabinet, align 4
  store i32 %24, ptr %3, align 4
  br label %53

25:                                               ; preds = %1
  %26 = load i32, ptr @hf_digitech_parameter_id_amp_b, align 4
  store i32 %26, ptr %3, align 4
  br label %53

27:                                               ; preds = %1
  %28 = load i32, ptr @hf_digitech_parameter_id_amp_cabinet_b, align 4
  store i32 %28, ptr %3, align 4
  br label %53

29:                                               ; preds = %1
  %30 = load i32, ptr @hf_digitech_parameter_id_noisegate, align 4
  store i32 %30, ptr %3, align 4
  br label %53

31:                                               ; preds = %1
  %32 = load i32, ptr @hf_digitech_parameter_id_volume_pre_fx, align 4
  store i32 %32, ptr %3, align 4
  br label %53

33:                                               ; preds = %1
  %34 = load i32, ptr @hf_digitech_parameter_id_chorusfx, align 4
  store i32 %34, ptr %3, align 4
  br label %53

35:                                               ; preds = %1
  %36 = load i32, ptr @hf_digitech_parameter_id_delay, align 4
  store i32 %36, ptr %3, align 4
  br label %53

37:                                               ; preds = %1
  %38 = load i32, ptr @hf_digitech_parameter_id_reverb, align 4
  store i32 %38, ptr %3, align 4
  br label %53

39:                                               ; preds = %1
  %40 = load i32, ptr @hf_digitech_parameter_id_volume_post_fx, align 4
  store i32 %40, ptr %3, align 4
  br label %53

41:                                               ; preds = %1
  %42 = load i32, ptr @hf_digitech_parameter_id_preset, align 4
  store i32 %42, ptr %3, align 4
  br label %53

43:                                               ; preds = %1
  %44 = load i32, ptr @hf_digitech_parameter_id_wah_min_max, align 4
  store i32 %44, ptr %3, align 4
  br label %53

45:                                               ; preds = %1
  %46 = load i32, ptr @hf_digitech_parameter_id_equalizer, align 4
  store i32 %46, ptr %3, align 4
  br label %53

47:                                               ; preds = %1
  %48 = load i32, ptr @hf_digitech_parameter_id_equalizer_b, align 4
  store i32 %48, ptr %3, align 4
  br label %53

49:                                               ; preds = %1
  %50 = load i32, ptr @hf_digitech_parameter_id_amp_loop, align 4
  store i32 %50, ptr %3, align 4
  br label %53

51:                                               ; preds = %1, %1, %1, %1, %1, %1
  br label %52

52:                                               ; preds = %1, %51
  br label %53

53:                                               ; preds = %52, %49, %47, %45, %43, %41, %39, %37, %35, %33, %31, %29, %27, %25, %23, %21, %19, %17, %15, %13, %11, %9, %7
  %54 = load i32, ptr %3, align 4
  call void @llvm.lifetime.end.p0(i64 4, ptr %3) #5
  ret i32 %54
}

; Function Attrs: null_pointer_is_valid sspstrong uwtable
define internal i32 @dissect_digitech_parameter(ptr noundef %0, ptr noundef %1, ptr noundef %2, i32 noundef %3) #0 {
  %5 = alloca ptr, align 8
  %6 = alloca ptr, align 8
  %7 = alloca ptr, align 8
  %8 = alloca i32, align 4
  %9 = alloca i8, align 1
  %10 = alloca i32, align 4
  %11 = alloca i16, align 2
  store ptr %0, ptr %5, align 8
  store ptr %1, ptr %6, align 8
  store ptr %2, ptr %7, align 8
  store i32 %3, ptr %8, align 4
  call void @llvm.lifetime.start.p0(i64 1, ptr %9) #5
  call void @llvm.lifetime.start.p0(i64 4, ptr %10) #5
  %12 = load i32, ptr @hf_digitech_parameter_id, align 4
  store i32 %12, ptr %10, align 4
  %13 = load ptr, ptr %7, align 8
  %14 = getelementptr inbounds nuw %struct._digitech_conv_data_t, ptr %13, i32 0, i32 0
  %15 = load i32, ptr %14, align 4
  %16 = icmp sge i32 %15, 1
  br i1 %16, label %17, label %24

17:                                               ; preds = %4
  %18 = load ptr, ptr %5, align 8
  %19 = load i32, ptr %8, align 4
  %20 = add i32 %19, 2
  %21 = call zeroext i8 @tvb_get_uint8(ptr noundef %18, i32 noundef %20)
  store i8 %21, ptr %9, align 1
  %22 = load i8, ptr %9, align 1
  %23 = call i32 @get_digitech_hf_parameter_id_by_position(i8 noundef zeroext %22)
  store i32 %23, ptr %10, align 4
  br label %24

24:                                               ; preds = %17, %4
  %25 = load ptr, ptr %6, align 8
  %26 = load i32, ptr %10, align 4
  %27 = load ptr, ptr %5, align 8
  %28 = load i32, ptr %8, align 4
  %29 = call ptr @proto_tree_add_item(ptr noundef %25, i32 noundef %26, ptr noundef %27, i32 noundef %28, i32 noundef 2, i32 noundef 0)
  %30 = load i32, ptr %8, align 4
  %31 = add i32 %30, 2
  store i32 %31, ptr %8, align 4
  %32 = load ptr, ptr %7, align 8
  %33 = getelementptr inbounds nuw %struct._digitech_conv_data_t, ptr %32, i32 0, i32 0
  %34 = load i32, ptr %33, align 4
  %35 = icmp sge i32 %34, 1
  br i1 %35, label %36, label %44

36:                                               ; preds = %24
  %37 = load ptr, ptr %6, align 8
  %38 = load i32, ptr @hf_digitech_parameter_position, align 4
  %39 = load ptr, ptr %5, align 8
  %40 = load i32, ptr %8, align 4
  %41 = call ptr @proto_tree_add_item(ptr noundef %37, i32 noundef %38, ptr noundef %39, i32 noundef %40, i32 noundef 1, i32 noundef 0)
  %42 = load i32, ptr %8, align 4
  %43 = add i32 %42, 1
  store i32 %43, ptr %8, align 4
  br label %44

44:                                               ; preds = %36, %24
  %45 = load ptr, ptr %5, align 8
  %46 = load i32, ptr %8, align 4
  %47 = call zeroext i8 @tvb_get_uint8(ptr noundef %45, i32 noundef %46)
  store i8 %47, ptr %9, align 1
  %48 = load i8, ptr %9, align 1
  %49 = zext i8 %48 to i32
  %50 = icmp slt i32 %49, 128
  br i1 %50, label %51, label %59

51:                                               ; preds = %44
  %52 = load ptr, ptr %6, align 8
  %53 = load i32, ptr @hf_digitech_parameter_data, align 4
  %54 = load ptr, ptr %5, align 8
  %55 = load i32, ptr %8, align 4
  %56 = call ptr @proto_tree_add_item(ptr noundef %52, i32 noundef %53, ptr noundef %54, i32 noundef %55, i32 noundef 1, i32 noundef 0)
  %57 = load i32, ptr %8, align 4
  %58 = add i32 %57, 1
  store i32 %58, ptr %8, align 4
  br label %103

59:                                               ; preds = %44
  call void @llvm.lifetime.start.p0(i64 2, ptr %11) #5
  %60 = load i8, ptr %9, align 1
  %61 = zext i8 %60 to i32
  %62 = icmp sgt i32 %61, 128
  br i1 %62, label %63, label %77

63:                                               ; preds = %59
  %64 = load i8, ptr %9, align 1
  %65 = zext i8 %64 to i32
  %66 = and i32 %65, -129
  %67 = trunc i32 %66 to i16
  store i16 %67, ptr %11, align 2
  %68 = load ptr, ptr %6, align 8
  %69 = load i32, ptr @hf_digitech_parameter_data_count, align 4
  %70 = load ptr, ptr %5, align 8
  %71 = load i32, ptr %8, align 4
  %72 = load i16, ptr %11, align 2
  %73 = zext i16 %72 to i32
  %74 = call ptr @proto_tree_add_uint(ptr noundef %68, i32 noundef %69, ptr noundef %70, i32 noundef %71, i32 noundef 1, i32 noundef %73)
  %75 = load i32, ptr %8, align 4
  %76 = add i32 %75, 1
  store i32 %76, ptr %8, align 4
  br label %91

77:                                               ; preds = %59
  %78 = load ptr, ptr %5, align 8
  %79 = load i32, ptr %8, align 4
  %80 = add i32 %79, 1
  %81 = call zeroext i16 @tvb_get_ntohs(ptr noundef %78, i32 noundef %80)
  store i16 %81, ptr %11, align 2
  %82 = load ptr, ptr %6, align 8
  %83 = load i32, ptr @hf_digitech_parameter_data_two_byte_count, align 4
  %84 = load ptr, ptr %5, align 8
  %85 = load i32, ptr %8, align 4
  %86 = load i16, ptr %11, align 2
  %87 = zext i16 %86 to i32
  %88 = call ptr @proto_tree_add_uint(ptr noundef %82, i32 noundef %83, ptr noundef %84, i32 noundef %85, i32 noundef 3, i32 noundef %87)
  %89 = load i32, ptr %8, align 4
  %90 = add i32 %89, 3
  store i32 %90, ptr %8, align 4
  br label %91

91:                                               ; preds = %77, %63
  %92 = load ptr, ptr %6, align 8
  %93 = load i32, ptr @hf_digitech_parameter_multibyte_data, align 4
  %94 = load ptr, ptr %5, align 8
  %95 = load i32, ptr %8, align 4
  %96 = load i16, ptr %11, align 2
  %97 = zext i16 %96 to i32
  %98 = call ptr @proto_tree_add_item(ptr noundef %92, i32 noundef %93, ptr noundef %94, i32 noundef %95, i32 noundef %97, i32 noundef 0)
  %99 = load i16, ptr %11, align 2
  %100 = zext i16 %99 to i32
  %101 = load i32, ptr %8, align 4
  %102 = add i32 %101, %100
  store i32 %102, ptr %8, align 4
  call void @llvm.lifetime.end.p0(i64 2, ptr %11) #5
  br label %103

103:                                              ; preds = %91, %51
  %104 = load i32, ptr %8, align 4
  call void @llvm.lifetime.end.p0(i64 4, ptr %10) #5
  call void @llvm.lifetime.end.p0(i64 1, ptr %9) #5
  ret i32 %104
}