; Function Attrs: null_pointer_is_valid sspstrong uwtable
define internal fastcc noundef i32 @dissect_digitech_parameter(ptr noundef %0, ptr noundef %1, ptr noundef readonly captures(none) %2, i32 noundef %3) unnamed_addr #0 {
  %5 = load i32, ptr %2, align 4
  %6 = icmp sgt i32 %5, 0
  %7 = add i32 %3, 2
  br i1 %6, label %8, label %get_digitech_hf_parameter_id_by_position.exit

8:                                                ; preds = %4
  %9 = tail call zeroext i8 @tvb_get_uint8(ptr noundef %0, i32 noundef %7)
  %10 = icmp ult i8 %9, 34
  br i1 %10, label %switch.lookup, label %get_digitech_hf_parameter_id_by_position.exit

switch.lookup:                                    ; preds = %8
  %11 = zext nneg i8 %9 to i64
  %switch.gep = getelementptr inbounds nuw [34 x ptr], ptr @switch.table.dissect_digitech_parameter, i64 0, i64 %11
  %switch.load = load ptr, ptr %switch.gep, align 8
  br label %get_digitech_hf_parameter_id_by_position.exit

get_digitech_hf_parameter_id_by_position.exit:    ; preds = %switch.lookup, %8, %4
  %.041.in = phi ptr [ @hf_digitech_parameter_id, %8 ], [ @hf_digitech_parameter_id, %4 ], [ %switch.load, %switch.lookup ]
  %.041 = load i32, ptr %.041.in, align 4
  %12 = tail call ptr @proto_tree_add_item(ptr noundef %1, i32 noundef %.041, ptr noundef %0, i32 noundef %3, i32 noundef 2, i32 noundef 0)
  %13 = load i32, ptr %2, align 4
  %14 = icmp sgt i32 %13, 0
  br i1 %14, label %15, label %19

15:                                               ; preds = %get_digitech_hf_parameter_id_by_position.exit
  %16 = load i32, ptr @hf_digitech_parameter_position, align 4
  %17 = tail call ptr @proto_tree_add_item(ptr noundef %1, i32 noundef %16, ptr noundef %0, i32 noundef %7, i32 noundef 1, i32 noundef 0)
  %18 = add i32 %3, 3
  br label %19

19:                                               ; preds = %15, %get_digitech_hf_parameter_id_by_position.exit
  %.042 = phi i32 [ %18, %15 ], [ %7, %get_digitech_hf_parameter_id_by_position.exit ]
  %20 = tail call zeroext i8 @tvb_get_uint8(ptr noundef %0, i32 noundef %.042)
  %21 = icmp sgt i8 %20, -1
  br i1 %21, label %22, label %26

22:                                               ; preds = %19
  %23 = load i32, ptr @hf_digitech_parameter_data, align 4
  %24 = tail call ptr @proto_tree_add_item(ptr noundef %1, i32 noundef %23, ptr noundef %0, i32 noundef %.042, i32 noundef 1, i32 noundef 0)
  %25 = add i32 %.042, 1
  br label %44

26:                                               ; preds = %19
  %.not = icmp eq i8 %20, -128
  br i1 %.not, label %33, label %27

27:                                               ; preds = %26
  %28 = and i8 %20, 127
  %29 = load i32, ptr @hf_digitech_parameter_data_count, align 4
  %30 = zext nneg i8 %28 to i32
  %31 = tail call ptr @proto_tree_add_uint(ptr noundef %1, i32 noundef %29, ptr noundef %0, i32 noundef %.042, i32 noundef 1, i32 noundef %30)
  %32 = add i32 %.042, 1
  %.pre = zext nneg i8 %28 to i32
  br label %40

33:                                               ; preds = %26
  %34 = add i32 %.042, 1
  %35 = tail call zeroext i16 @tvb_get_ntohs(ptr noundef %0, i32 noundef %34)
  %36 = load i32, ptr @hf_digitech_parameter_data_two_byte_count, align 4
  %37 = zext i16 %35 to i32
  %38 = tail call ptr @proto_tree_add_uint(ptr noundef %1, i32 noundef %36, ptr noundef %0, i32 noundef %.042, i32 noundef 3, i32 noundef %37)
  %39 = add i32 %.042, 3
  br label %40

40:                                               ; preds = %33, %27
  %.pre-phi = phi i32 [ %37, %33 ], [ %.pre, %27 ]
  %.2 = phi i32 [ %39, %33 ], [ %32, %27 ]
  %41 = load i32, ptr @hf_digitech_parameter_multibyte_data, align 4
  %42 = tail call ptr @proto_tree_add_item(ptr noundef %1, i32 noundef %41, ptr noundef %0, i32 noundef %.2, i32 noundef %.pre-phi, i32 noundef 0)
  %43 = add i32 %.2, %.pre-phi
  br label %44

44:                                               ; preds = %40, %22
  %.1 = phi i32 [ %25, %22 ], [ %43, %40 ]
  ret i32 %.1
}